; Function Attrs: nounwind uwtable
define dso_local noundef ptr @_Py_CheckFunctionResult(ptr noundef %0, ptr noundef %1, ptr noundef %2, ptr noundef %3) local_unnamed_addr #0 {
  %5 = icmp eq ptr %2, null
  %6 = getelementptr i8, ptr %0, i64 112
  %.val = load ptr, ptr %6, align 8, !tbaa !4
  %7 = icmp eq ptr %.val, null
  br i1 %5, label %8, label %15

8:                                                ; preds = %4
  br i1 %7, label %_PyErr_Occurred.exit.thread, label %_PyErr_Occurred.exit

_PyErr_Occurred.exit:                             ; preds = %8
  %9 = getelementptr i8, ptr %.val, i64 8
  %.val.i = load ptr, ptr %9, align 8, !tbaa !20
  %.not19 = icmp eq ptr %.val.i, null
  br i1 %.not19, label %_PyErr_Occurred.exit.thread, label %_PyErr_Occurred.exit24.thread

_PyErr_Occurred.exit.thread:                      ; preds = %8, %_PyErr_Occurred.exit
  %.not20 = icmp eq ptr %1, null
  %10 = load ptr, ptr @PyExc_SystemError, align 8, !tbaa !23
  br i1 %.not20, label %13, label %11

11:                                               ; preds = %_PyErr_Occurred.exit.thread
  %12 = tail call ptr (ptr, ptr, ptr, ...) @_PyErr_Format(ptr noundef nonnull %0, ptr noundef %10, ptr noundef nonnull @.str, ptr noundef nonnull %1) #10
  br label %_PyErr_Occurred.exit24.thread

13:                                               ; preds = %_PyErr_Occurred.exit.thread
  %14 = tail call ptr (ptr, ptr, ptr, ...) @_PyErr_Format(ptr noundef nonnull %0, ptr noundef %10, ptr noundef nonnull @.str.1, ptr noundef %3) #10
  br label %_PyErr_Occurred.exit24.thread

15:                                               ; preds = %4
  br i1 %7, label %_PyErr_Occurred.exit24.thread, label %_PyErr_Occurred.exit24

_PyErr_Occurred.exit24:                           ; preds = %15
  %16 = getelementptr i8, ptr %.val, i64 8
  %.val.i22 = load ptr, ptr %16, align 8, !tbaa !20
  %.not = icmp eq ptr %.val.i22, null
  br i1 %.not, label %_PyErr_Occurred.exit24.thread, label %17

17:                                               ; preds = %_PyErr_Occurred.exit24
  %18 = load i32, ptr %2, align 8, !tbaa !24
  %.not.i = icmp sgt i32 %18, -1
  br i1 %.not.i, label %19, label %Py_DECREF.exit

19:                                               ; preds = %17
  %20 = add nsw i32 %18, -1
  store i32 %20, ptr %2, align 8, !tbaa !24
  %21 = icmp eq i32 %20, 0
  br i1 %21, label %22, label %Py_DECREF.exit

22:                                               ; preds = %19
  tail call void @_Py_Dealloc(ptr noundef nonnull %2) #10
  br label %Py_DECREF.exit

Py_DECREF.exit:                                   ; preds = %17, %19, %22
  %.not18 = icmp eq ptr %1, null
  %23 = load ptr, ptr @PyExc_SystemError, align 8, !tbaa !23
  br i1 %.not18, label %26, label %24

24:                                               ; preds = %Py_DECREF.exit
  %25 = tail call ptr (ptr, ptr, ptr, ...) @_PyErr_FormatFromCauseTstate(ptr noundef nonnull %0, ptr noundef %23, ptr noundef nonnull @.str.2, ptr noundef nonnull %1) #10
  br label %_PyErr_Occurred.exit24.thread

26:                                               ; preds = %Py_DECREF.exit
  %27 = tail call ptr (ptr, ptr, ptr, ...) @_PyErr_FormatFromCauseTstate(ptr noundef nonnull %0, ptr noundef %23, ptr noundef nonnull @.str.3, ptr noundef %3) #10
  br label %_PyErr_Occurred.exit24.thread

_PyErr_Occurred.exit24.thread:                    ; preds = %15, %_PyErr_Occurred.exit, %_PyErr_Occurred.exit24, %24, %26, %11, %13
  %.0 = phi ptr [ null, %13 ], [ null, %11 ], [ null, %26 ], [ null, %24 ], [ %2, %_PyErr_Occurred.exit24 ], [ null, %_PyErr_Occurred.exit ], [ %2, %15 ]
  ret ptr %.0
}